; ModuleID = '23/119.c'
source_filename = "23/119.c"
target datalayout = "e-m:e-p270:32:32-p271:32:32-p272:64:64-i64:64-f80:128-n8:16:32:64-S128"
target triple = "x86_64-pc-linux-gnu"

@.str = private unnamed_addr constant [3 x i8] c"%c\00", align 1

; Function Attrs: noinline nounwind uwtable
define dso_local void @main() #0 {
  %1 = alloca [100 x i8], align 16
  %2 = alloca i32, align 4
  %3 = alloca i32, align 4
  %4 = alloca i32, align 4
  %5 = alloca i32, align 4
  %6 = alloca i32, align 4
  %7 = alloca i32, align 4
  %8 = bitcast [100 x i8]* %1 to i8*
  call void @llvm.memset.p0i8.i64(i8* align 16 %8, i8 0, i64 100, i1 false)
  store i32 0, i32* %7, align 4
  %9 = getelementptr inbounds [100 x i8], [100 x i8]* %1, i64 0, i64 0
  %10 = call i32 (i8*, ...) bitcast (i32 (...)* @gets to i32 (i8*, ...)*)(i8* %9)
  %11 = getelementptr inbounds [100 x i8], [100 x i8]* %1, i64 0, i64 0
  %12 = call i64 @strlen(i8* %11) #4
  %13 = trunc i64 %12 to i32
  store i32 %13, i32* %2, align 4
  %14 = load i32, i32* %2, align 4
  %15 = sub nsw i32 %14, 1
  store i32 %15, i32* %5, align 4
  store i32 0, i32* %6, align 4
  br label %16

16:                                               ; preds = %31, %0
  %17 = load i32, i32* %6, align 4
  %18 = load i32, i32* %2, align 4
  %19 = icmp slt i32 %17, %18
  br i1 %19, label %20, label %34

20:                                               ; preds = %16
  %21 = load i32, i32* %6, align 4
  %22 = sext i32 %21 to i64
  %23 = getelementptr inbounds [100 x i8], [100 x i8]* %1, i64 0, i64 %22
  %24 = load i8, i8* %23, align 1
  %25 = sext i8 %24 to i32
  %26 = icmp eq i32 %25, 32
  br i1 %26, label %27, label %30

27:                                               ; preds = %20
  %28 = load i32, i32* %7, align 4
  %29 = add nsw i32 %28, 1
  store i32 %29, i32* %7, align 4
  br label %30

30:                                               ; preds = %27, %20
  br label %31

31:                                               ; preds = %30
  %32 = load i32, i32* %6, align 4
  %33 = add nsw i32 %32, 1
  store i32 %33, i32* %6, align 4
  br label %16

34:                                               ; preds = %16
  %35 = load i32, i32* %7, align 4
  %36 = icmp ne i32 %35, 0
  br i1 %36, label %37, label %113

37:                                               ; preds = %34
  %38 = load i32, i32* %2, align 4
  %39 = sub nsw i32 %38, 1
  store i32 %39, i32* %3, align 4
  br label %40

40:                                               ; preds = %77, %37
  %41 = load i32, i32* %3, align 4
  %42 = icmp sge i32 %41, 0
  br i1 %42, label %43, label %80

43:                                               ; preds = %40
  %44 = load i32, i32* %3, align 4
  %45 = sext i32 %44 to i64
  %46 = getelementptr inbounds [100 x i8], [100 x i8]* %1, i64 0, i64 %45
  %47 = load i8, i8* %46, align 1
  %48 = sext i8 %47 to i32
  %49 = icmp eq i32 %48, 32
  br i1 %49, label %50, label %76

50:                                               ; preds = %43
  %51 = load i32, i32* %3, align 4
  %52 = add nsw i32 %51, 1
  store i32 %52, i32* %4, align 4
  br label %53

53:                                               ; preds = %64, %50
  %54 = load i32, i32* %4, align 4
  %55 = load i32, i32* %5, align 4
  %56 = icmp sle i32 %54, %55
  br i1 %56, label %57, label %67

57:                                               ; preds = %53
  %58 = load i32, i32* %4, align 4
  %59 = sext i32 %58 to i64
  %60 = getelementptr inbounds [100 x i8], [100 x i8]* %1, i64 0, i64 %59
  %61 = load i8, i8* %60, align 1
  %62 = sext i8 %61 to i32
  %63 = call i32 (i8*, ...) @printf(i8* getelementptr inbounds ([3 x i8], [3 x i8]* @.str, i64 0, i64 0), i32 %62)
  br label %64

64:                                               ; preds = %57
  %65 = load i32, i32* %4, align 4
  %66 = add nsw i32 %65, 1
  store i32 %66, i32* %4, align 4
  br label %53

67:                                               ; preds = %53
  %68 = load i32, i32* %3, align 4
  %69 = sext i32 %68 to i64
  %70 = getelementptr inbounds [100 x i8], [100 x i8]* %1, i64 0, i64 %69
  %71 = load i8, i8* %70, align 1
  %72 = sext i8 %71 to i32
  %73 = call i32 (i8*, ...) @printf(i8* getelementptr inbounds ([3 x i8], [3 x i8]* @.str, i64 0, i64 0), i32 %72)
  %74 = load i32, i32* %3, align 4
  %75 = sub nsw i32 %74, 1
  store i32 %75, i32* %5, align 4
  br label %76

76:                                               ; preds = %67, %43
  br label %77

77:                                               ; preds = %76
  %78 = load i32, i32* %3, align 4
  %79 = add nsw i32 %78, -1
  store i32 %79, i32* %3, align 4
  br label %40

80:                                               ; preds = %40
  store i32 0, i32* %3, align 4
  br label %81

81:                                               ; preds = %109, %80
  %82 = load i32, i32* %3, align 4
  %83 = load i32, i32* %2, align 4
  %84 = icmp slt i32 %82, %83
  br i1 %84, label %85, label %112

85:                                               ; preds = %81
  %86 = load i32, i32* %3, align 4
  %87 = sext i32 %86 to i64
  %88 = getelementptr inbounds [100 x i8], [100 x i8]* %1, i64 0, i64 %87
  %89 = load i8, i8* %88, align 1
  %90 = sext i8 %89 to i32
  %91 = icmp eq i32 %90, 32
  br i1 %91, label %92, label %108

92:                                               ; preds = %85
  store i32 0, i32* %4, align 4
  br label %93

93:                                               ; preds = %104, %92
  %94 = load i32, i32* %4, align 4
  %95 = load i32, i32* %3, align 4
  %96 = icmp slt i32 %94, %95
  br i1 %96, label %97, label %107

97:                                               ; preds = %93
  %98 = load i32, i32* %4, align 4
  %99 = sext i32 %98 to i64
  %100 = getelementptr inbounds [100 x i8], [100 x i8]* %1, i64 0, i64 %99
  %101 = load i8, i8* %100, align 1
  %102 = sext i8 %101 to i32
  %103 = call i32 (i8*, ...) @printf(i8* getelementptr inbounds ([3 x i8], [3 x i8]* @.str, i64 0, i64 0), i32 %102)
  br label %104

104:                                              ; preds = %97
  %105 = load i32, i32* %4, align 4
  %106 = add nsw i32 %105, 1
  store i32 %106, i32* %4, align 4
  br label %93

107:                                              ; preds = %93
  br label %112

108:                                              ; preds = %85
  br label %109

109:                                              ; preds = %108
  %110 = load i32, i32* %3, align 4
  %111 = add nsw i32 %110, 1
  store i32 %111, i32* %3, align 4
  br label %81

112:                                              ; preds = %107, %81
  br label %116

113:                                              ; preds = %34
  %114 = getelementptr inbounds [100 x i8], [100 x i8]* %1, i64 0, i64 0
  %115 = call i32 @puts(i8* %114)
  br label %116

116:                                              ; preds = %113, %112
  ret void
}

; Function Attrs: argmemonly nounwind willreturn
declare void @llvm.memset.p0i8.i64(i8* nocapture writeonly, i8, i64, i1 immarg) #1

declare dso_local i32 @gets(...) #2

; Function Attrs: nounwind readonly
declare dso_local i64 @strlen(i8*) #3

declare dso_local i32 @printf(i8*, ...) #2

declare dso_local i32 @puts(i8*) #2


!llvm.module.flags = !{!0}
!llvm.ident = !{!1}

!0 = !{i32 1, !"wchar_size", i32 4}
!1 = !{!"clang version 10.0.0-4ubuntu1 "}
